target datalayout = "e-m:e-p270:32:32-p271:32:32-p272:64:64-i64:64-i128:128-f80:128-n8:16:32:64-S128"
target triple = "x86_64-pc-linux-gnu"

; Function Attrs: nounwind uwtable
define internal i32 @uv__wtf8_decode1(ptr noundef %0) #0 {
  %2 = alloca i32, align 4
  %3 = alloca ptr, align 8
  %4 = alloca i32, align 4
  %5 = alloca i8, align 1
  %6 = alloca i8, align 1
  %7 = alloca i8, align 1
  %8 = alloca i8, align 1
  %9 = alloca i32, align 4
  store ptr %0, ptr %3, align 8
  call void @llvm.lifetime.start.p0(i64 4, ptr %4) #3
  call void @llvm.lifetime.start.p0(i64 1, ptr %5) #3
  call void @llvm.lifetime.start.p0(i64 1, ptr %6) #3
  call void @llvm.lifetime.start.p0(i64 1, ptr %7) #3
  call void @llvm.lifetime.start.p0(i64 1, ptr %8) #3
  %10 = load ptr, ptr %3, align 8
  %11 = load ptr, ptr %10, align 8
  %12 = load i8, ptr %11, align 1
  store i8 %12, ptr %5, align 1
  %13 = load i8, ptr %5, align 1
  %14 = zext i8 %13 to i32
  %15 = icmp sle i32 %14, 127
  br i1 %15, label %16, label %19

16:                                               ; preds = %1
  %17 = load i8, ptr %5, align 1
  %18 = zext i8 %17 to i32
  store i32 %18, ptr %2, align 4
  store i32 1, ptr %9, align 4
  br label %101

19:                                               ; preds = %1
  %20 = load i8, ptr %5, align 1
  %21 = zext i8 %20 to i32
  %22 = icmp slt i32 %21, 194
  br i1 %22, label %23, label %24

23:                                               ; preds = %19
  store i32 -1, ptr %2, align 4
  store i32 1, ptr %9, align 4
  br label %101

24:                                               ; preds = %19
  %25 = load i8, ptr %5, align 1
  %26 = zext i8 %25 to i32
  store i32 %26, ptr %4, align 4
  %27 = load ptr, ptr %3, align 8
  %28 = load ptr, ptr %27, align 8
  %29 = getelementptr inbounds nuw i8, ptr %28, i32 1
  store ptr %29, ptr %27, align 8
  %30 = load i8, ptr %29, align 1
  store i8 %30, ptr %6, align 1
  %31 = load i8, ptr %6, align 1
  %32 = zext i8 %31 to i32
  %33 = and i32 %32, 192
  %34 = icmp ne i32 %33, 128
  br i1 %34, label %35, label %36

35:                                               ; preds = %24
  store i32 -1, ptr %2, align 4
  store i32 1, ptr %9, align 4
  br label %101

36:                                               ; preds = %24
  %37 = load i32, ptr %4, align 4
  %38 = shl i32 %37, 6
  %39 = load i8, ptr %6, align 1
  %40 = zext i8 %39 to i32
  %41 = and i32 %40, 63
  %42 = or i32 %38, %41
  store i32 %42, ptr %4, align 4
  %43 = load i8, ptr %5, align 1
  %44 = zext i8 %43 to i32
  %45 = icmp sle i32 %44, 223
  br i1 %45, label %46, label %49

46:                                               ; preds = %36
  %47 = load i32, ptr %4, align 4
  %48 = and i32 2047, %47
  store i32 %48, ptr %2, align 4
  store i32 1, ptr %9, align 4
  br label %101

49:                                               ; preds = %36
  %50 = load ptr, ptr %3, align 8
  %51 = load ptr, ptr %50, align 8
  %52 = getelementptr inbounds nuw i8, ptr %51, i32 1
  store ptr %52, ptr %50, align 8
  %53 = load i8, ptr %52, align 1
  store i8 %53, ptr %7, align 1
  %54 = load i8, ptr %7, align 1
  %55 = zext i8 %54 to i32
  %56 = and i32 %55, 192
  %57 = icmp ne i32 %56, 128
  br i1 %57, label %58, label %59

58:                                               ; preds = %49
  store i32 -1, ptr %2, align 4
  store i32 1, ptr %9, align 4
  br label %101

59:                                               ; preds = %49
  %60 = load i32, ptr %4, align 4
  %61 = shl i32 %60, 6
  %62 = load i8, ptr %7, align 1
  %63 = zext i8 %62 to i32
  %64 = and i32 %63, 63
  %65 = or i32 %61, %64
  store i32 %65, ptr %4, align 4
  %66 = load i8, ptr %5, align 1
  %67 = zext i8 %66 to i32
  %68 = icmp sle i32 %67, 239
  br i1 %68, label %69, label %72

69:                                               ; preds = %59
  %70 = load i32, ptr %4, align 4
  %71 = and i32 65535, %70
  store i32 %71, ptr %2, align 4
  store i32 1, ptr %9, align 4
  br label %101

72:                                               ; preds = %59
  %73 = load ptr, ptr %3, align 8
  %74 = load ptr, ptr %73, align 8
  %75 = getelementptr inbounds nuw i8, ptr %74, i32 1
  store ptr %75, ptr %73, align 8
  %76 = load i8, ptr %75, align 1
  store i8 %76, ptr %8, align 1
  %77 = load i8, ptr %8, align 1
  %78 = zext i8 %77 to i32
  %79 = and i32 %78, 192
  %80 = icmp ne i32 %79, 128
  br i1 %80, label %81, label %82

81:                                               ; preds = %72
  store i32 -1, ptr %2, align 4
  store i32 1, ptr %9, align 4
  br label %101

82:                                               ; preds = %72
  %83 = load i32, ptr %4, align 4
  %84 = shl i32 %83, 6
  %85 = load i8, ptr %8, align 1
  %86 = zext i8 %85 to i32
  %87 = and i32 %86, 63
  %88 = or i32 %84, %87
  store i32 %88, ptr %4, align 4
  %89 = load i8, ptr %5, align 1
  %90 = zext i8 %89 to i32
  %91 = icmp sle i32 %90, 244
  br i1 %91, label %92, label %100

92:                                               ; preds = %82
  %93 = load i32, ptr %4, align 4
  %94 = and i32 %93, 2097151
  store i32 %94, ptr %4, align 4
  %95 = load i32, ptr %4, align 4
  %96 = icmp ule i32 %95, 1114111
  br i1 %96, label %97, label %99

97:                                               ; preds = %92
  %98 = load i32, ptr %4, align 4
  store i32 %98, ptr %2, align 4
  store i32 1, ptr %9, align 4
  br label %101

99:                                               ; preds = %92
  br label %100

100:                                              ; preds = %99, %82
  store i32 -1, ptr %2, align 4
  store i32 1, ptr %9, align 4
  br label %101

101:                                              ; preds = %100, %97, %81, %69, %58, %46, %35, %23, %16
  call void @llvm.lifetime.end.p0(i64 1, ptr %8) #3
  call void @llvm.lifetime.end.p0(i64 1, ptr %7) #3
  call void @llvm.lifetime.end.p0(i64 1, ptr %6) #3
  call void @llvm.lifetime.end.p0(i64 1, ptr %5) #3
  call void @llvm.lifetime.end.p0(i64 4, ptr %4) #3
  %102 = load i32, ptr %2, align 4
  ret i32 %102
}

; Function Attrs: nounwind uwtable
define dso_local void @uv_wtf8_to_utf16(ptr noundef %0, ptr noundef %1, i64 noundef %2) #0 {
  %4 = alloca ptr, align 8
  %5 = alloca ptr, align 8
  %6 = alloca i64, align 8
  %7 = alloca i32, align 4
  store ptr %0, ptr %4, align 8
  store ptr %1, ptr %5, align 8
  store i64 %2, ptr %6, align 8
  call void @llvm.lifetime.start.p0(i64 4, ptr %7) #3
  br label %8

8:                                                ; preds = %37, %3
  %9 = call i32 @uv__wtf8_decode1(ptr noundef %4)
  store i32 %9, ptr %7, align 4
  %10 = load i32, ptr %7, align 4
  %11 = icmp sgt i32 %10, 65535
  br i1 %11, label %12, label %29

12:                                               ; preds = %8
  %13 = load i32, ptr %7, align 4
  %14 = sub nsw i32 %13, 65536
  %15 = ashr i32 %14, 10
  %16 = add nsw i32 %15, 55296
  %17 = trunc i32 %16 to i16
  %18 = load ptr, ptr %5, align 8
  %19 = getelementptr inbounds nuw i16, ptr %18, i32 1
  store ptr %19, ptr %5, align 8
  store i16 %17, ptr %18, align 2
  %20 = load i32, ptr %7, align 4
  %21 = sub nsw i32 %20, 65536
  %22 = and i32 %21, 1023
  %23 = add nsw i32 %22, 56320
  %24 = trunc i32 %23 to i16
  %25 = load ptr, ptr %5, align 8
  %26 = getelementptr inbounds nuw i16, ptr %25, i32 1
  store ptr %26, ptr %5, align 8
  store i16 %24, ptr %25, align 2
  %27 = load i64, ptr %6, align 8
  %28 = sub i64 %27, 2
  store i64 %28, ptr %6, align 8
  br label %36

29:                                               ; preds = %8
  %30 = load i32, ptr %7, align 4
  %31 = trunc i32 %30 to i16
  %32 = load ptr, ptr %5, align 8
  %33 = getelementptr inbounds nuw i16, ptr %32, i32 1
  store ptr %33, ptr %5, align 8
  store i16 %31, ptr %32, align 2
  %34 = load i64, ptr %6, align 8
  %35 = sub i64 %34, 1
  store i64 %35, ptr %6, align 8
  br label %36

36:                                               ; preds = %29, %12
  br label %37

37:                                               ; preds = %36
  %38 = load ptr, ptr %4, align 8
  %39 = getelementptr inbounds nuw i8, ptr %38, i32 1
  store ptr %39, ptr %4, align 8
  %40 = load i8, ptr %38, align 1
  %41 = icmp ne i8 %40, 0
  br i1 %41, label %8, label %42

42:                                               ; preds = %37
  call void @llvm.lifetime.end.p0(i64 4, ptr %7) #3
  ret void
}