; Function Attrs: nofree norecurse nosync nounwind memory(argmem: readwrite) uwtable
define dso_local void @uv_wtf8_to_utf16(ptr noundef readonly captures(none) %0, ptr noundef writeonly captures(none) %1, i64 noundef %2) local_unnamed_addr #3 {
  br label %4

4:                                                ; preds = %56, %3
  %.013 = phi ptr [ %0, %3 ], [ %57, %56 ]
  %.0 = phi ptr [ %1, %3 ], [ %.1, %56 ]
  %5 = load i8, ptr %.013, align 1
  %6 = zext i8 %5 to i32
  %7 = icmp sgt i8 %5, -1
  br i1 %7, label %uv__wtf8_decode1.exit.thread, label %8

8:                                                ; preds = %4
  %9 = icmp samesign ult i8 %5, -62
  br i1 %9, label %uv__wtf8_decode1.exit.thread, label %10

10:                                               ; preds = %8
  %11 = getelementptr inbounds nuw i8, ptr %.013, i64 1
  %12 = load i8, ptr %11, align 1
  %13 = zext i8 %12 to i32
  %14 = and i32 %13, 192
  %.not.i = icmp eq i32 %14, 128
  br i1 %.not.i, label %15, label %uv__wtf8_decode1.exit.thread

15:                                               ; preds = %10
  %16 = shl nuw nsw i32 %6, 6
  %17 = and i32 %13, 63
  %18 = or disjoint i32 %17, %16
  %19 = icmp samesign ult i8 %5, -32
  br i1 %19, label %20, label %22

20:                                               ; preds = %15
  %21 = and i32 %18, 2047
  br label %uv__wtf8_decode1.exit.thread

22:                                               ; preds = %15
  %23 = getelementptr inbounds nuw i8, ptr %.013, i64 2
  %24 = load i8, ptr %23, align 1
  %25 = zext i8 %24 to i32
  %26 = and i32 %25, 192
  %.not27.i = icmp eq i32 %26, 128
  br i1 %.not27.i, label %27, label %uv__wtf8_decode1.exit.thread

27:                                               ; preds = %22
  %28 = shl nuw nsw i32 %18, 6
  %29 = and i32 %25, 63
  %30 = or disjoint i32 %29, %28
  %31 = icmp samesign ult i8 %5, -16
  br i1 %31, label %uv__wtf8_decode1.exit.thread, label %32

32:                                               ; preds = %27
  %33 = getelementptr inbounds nuw i8, ptr %.013, i64 3
  %34 = load i8, ptr %33, align 1
  %35 = zext i8 %34 to i32
  %36 = and i32 %35, 192
  %.not28.i = icmp eq i32 %36, 128
  %37 = icmp samesign ult i8 %5, -11
  %or.cond.i = and i1 %37, %.not28.i
  br i1 %or.cond.i, label %38, label %uv__wtf8_decode1.exit.thread

38:                                               ; preds = %32
  %39 = shl nuw nsw i32 %30, 6
  %.masked.i = and i32 %39, 2097088
  %40 = icmp samesign ult i32 %.masked.i, 1114112
  br i1 %40, label %uv__wtf8_decode1.exit, label %uv__wtf8_decode1.exit.thread

uv__wtf8_decode1.exit:                            ; preds = %38
  %41 = and i32 %35, 63
  %42 = or disjoint i32 %41, %.masked.i
  %43 = icmp samesign ugt i32 %.masked.i, 65535
  br i1 %43, label %44, label %uv__wtf8_decode1.exit.thread

44:                                               ; preds = %uv__wtf8_decode1.exit
  %45 = add nuw nsw i32 %.masked.i, 67043328
  %46 = lshr i32 %45, 10
  %47 = trunc i32 %46 to i16
  %48 = add nuw nsw i16 %47, -10240
  %49 = getelementptr inbounds nuw i8, ptr %.0, i64 2
  store i16 %48, ptr %.0, align 2
  %50 = trunc i32 %42 to i16
  %51 = and i16 %50, 1023
  %52 = or disjoint i16 %51, -9216
  %53 = getelementptr inbounds nuw i8, ptr %.0, i64 4
  store i16 %52, ptr %49, align 2
  br label %56

uv__wtf8_decode1.exit.thread:                     ; preds = %27, %38, %32, %22, %10, %8, %4, %20, %uv__wtf8_decode1.exit
  %.0.i19 = phi i32 [ %42, %uv__wtf8_decode1.exit ], [ -1, %38 ], [ -1, %32 ], [ -1, %22 ], [ -1, %10 ], [ -1, %8 ], [ %6, %4 ], [ %21, %20 ], [ %30, %27 ]
  %.11418 = phi ptr [ %33, %uv__wtf8_decode1.exit ], [ %33, %38 ], [ %33, %32 ], [ %23, %22 ], [ %11, %10 ], [ %.013, %8 ], [ %.013, %4 ], [ %11, %20 ], [ %23, %27 ]
  %54 = trunc i32 %.0.i19 to i16
  %55 = getelementptr inbounds nuw i8, ptr %.0, i64 2
  store i16 %54, ptr %.0, align 2
  br label %56

56:                                               ; preds = %44, %uv__wtf8_decode1.exit.thread
  %.11417 = phi ptr [ %33, %44 ], [ %.11418, %uv__wtf8_decode1.exit.thread ]
  %.1 = phi ptr [ %53, %44 ], [ %55, %uv__wtf8_decode1.exit.thread ]
  %57 = getelementptr inbounds nuw i8, ptr %.11417, i64 1
  %58 = load i8, ptr %.11417, align 1
  %.not = icmp eq i8 %58, 0
  br i1 %.not, label %59, label %4

59:                                               ; preds = %56
  ret void
}